; Function Attrs: mustprogress nofree norecurse nounwind willreturn memory(argmem: readwrite) uwtable
define noundef zeroext i1 @_ZNK8facebook5velox6memory15MallocAllocator16checkConsistencyEv(ptr nocapture noundef nonnull readonly align 8 dereferenceable(1016) %this) unnamed_addr #14 align 2 {
entry:
  %allocatedBytes_ = getelementptr inbounds i8, ptr %this, i64 896
  %0 = load atomic i64, ptr %allocatedBytes_ seq_cst, align 8
  %cmp = icmp sgt i64 %0, -1
  %capacity_ = getelementptr inbounds i8, ptr %this, i64 888
  %1 = load i64, ptr %capacity_, align 8
  %cmp2 = icmp ule i64 %0, %1
  %2 = select i1 %cmp, i1 %cmp2, i1 false
  ret i1 %2
}